; Function Attrs: nounwind uwtable
define range(i32 -1, 1) i32 @tjCompressFromYUVPlanes(ptr noundef %0, ptr noundef %1, i32 noundef %2, ptr noundef %3, i32 noundef %4, i32 noundef %5, ptr noundef %6, ptr noundef %7, i32 noundef %8, i32 noundef %9) local_unnamed_addr #0 {
  %11 = alloca i64, align 8
  %.not = icmp eq ptr %0, null
  br i1 %.not, label %12, label %15

12:                                               ; preds = %10
  %13 = tail call align 16 ptr @llvm.threadlocal.address.p0(ptr align 16 @errStr)
  %14 = tail call i32 (ptr, i64, ptr, ...) @snprintf(ptr noundef nonnull dereferenceable(1) %13, i64 noundef 200, ptr noundef nonnull @.str.4, ptr noundef nonnull @tjCompressFromYUVPlanes.FUNCTION_NAME) #26
  br label %55

15:                                               ; preds = %10
  %16 = getelementptr inbounds i8, ptr %0, i64 1528
  store i32 0, ptr %16, align 8
  %17 = getelementptr inbounds i8, ptr %0, i64 1740
  store i32 0, ptr %17, align 4
  %or.cond = icmp ugt i32 %5, 6
  %18 = icmp eq ptr %7, null
  %or.cond3 = or i1 %or.cond, %18
  %19 = icmp ugt i32 %8, 100
  %or.cond7 = or i1 %or.cond3, %19
  br i1 %or.cond7, label %20, label %25

20:                                               ; preds = %15
  %21 = getelementptr inbounds i8, ptr %0, i64 1540
  %22 = tail call i32 (ptr, i64, ptr, ...) @snprintf(ptr noundef nonnull dereferenceable(1) %21, i64 noundef 200, ptr noundef nonnull @.str, ptr noundef nonnull @tjCompressFromYUVPlanes.FUNCTION_NAME, ptr noundef nonnull @.str.1) #26
  store i32 1, ptr %17, align 4
  %23 = tail call align 16 ptr @llvm.threadlocal.address.p0(ptr align 16 @errStr)
  %24 = tail call i32 (ptr, i64, ptr, ...) @snprintf(ptr noundef nonnull dereferenceable(1) %23, i64 noundef 200, ptr noundef nonnull @.str, ptr noundef nonnull @tjCompressFromYUVPlanes.FUNCTION_NAME, ptr noundef nonnull @.str.1) #26
  br label %55

25:                                               ; preds = %15
  %26 = getelementptr inbounds i8, ptr %0, i64 1752
  store i32 %8, ptr %26, align 8
  %27 = getelementptr inbounds i8, ptr %0, i64 1756
  store i32 %5, ptr %27, align 4
  %28 = lshr i32 %9, 1
  %.lobit.i = and i32 %28, 1
  %29 = getelementptr inbounds i8, ptr %0, i64 1744
  store i32 %.lobit.i, ptr %29, align 8
  %30 = and i32 %9, 8
  %.not.i = icmp eq i32 %30, 0
  br i1 %.not.i, label %31, label %.sink.split.i

31:                                               ; preds = %25
  %32 = and i32 %9, 16
  %.not39.i = icmp eq i32 %32, 0
  br i1 %.not39.i, label %33, label %.sink.split.i

33:                                               ; preds = %31
  %34 = and i32 %9, 32
  %.not40.i = icmp eq i32 %34, 0
  br i1 %.not40.i, label %36, label %.sink.split.i

.sink.split.i:                                    ; preds = %33, %31, %25
  %.str.125.sink.i = phi ptr [ @.str.123, %25 ], [ @.str.125, %31 ], [ @.str.126, %33 ]
  %35 = tail call i32 @setenv(ptr noundef nonnull %.str.125.sink.i, ptr noundef nonnull @.str.124, i32 noundef 1) #26
  %.pre = load i32, ptr %26, align 8
  br label %36

36:                                               ; preds = %.sink.split.i, %33
  %37 = phi i32 [ %.pre, %.sink.split.i ], [ %8, %33 ]
  %38 = lshr i32 %9, 8
  %.lobit41.i = and i32 %38, 1
  %39 = getelementptr inbounds i8, ptr %0, i64 1776
  store i32 %.lobit41.i, ptr %39, align 8
  %40 = lshr i32 %9, 10
  %.lobit42.i = and i32 %40, 1
  %41 = getelementptr inbounds i8, ptr %0, i64 1748
  store i32 %.lobit42.i, ptr %41, align 4
  %42 = icmp slt i32 %37, 96
  %43 = and i32 %9, 4096
  %.not44.i = icmp eq i32 %43, 0
  %or.cond.i = and i1 %.not44.i, %42
  %44 = getelementptr inbounds i8, ptr %0, i64 1780
  %. = zext i1 %or.cond.i to i32
  store i32 %., ptr %44, align 4
  %45 = lshr i32 %9, 13
  %.lobit45.i = and i32 %45, 1
  %46 = getelementptr inbounds i8, ptr %0, i64 1532
  store i32 %.lobit45.i, ptr %46, align 4
  %47 = lshr i32 %9, 14
  %.lobit46.i = and i32 %47, 1
  %48 = getelementptr inbounds i8, ptr %0, i64 1788
  store i32 %.lobit46.i, ptr %48, align 4
  %49 = and i32 %9, 32768
  %.not47.i = icmp eq i32 %49, 0
  br i1 %.not47.i, label %processFlags.exit, label %50

50:                                               ; preds = %36
  %51 = getelementptr inbounds i8, ptr %0, i64 1792
  store i32 500, ptr %51, align 8
  br label %processFlags.exit

processFlags.exit:                                ; preds = %36, %50
  %52 = load i64, ptr %7, align 8
  store i64 %52, ptr %11, align 8
  %53 = call i32 @tj3CompressFromYUVPlanes8(ptr noundef nonnull %0, ptr noundef %1, i32 noundef %2, ptr noundef %3, i32 noundef %4, ptr noundef %6, ptr noundef nonnull %11)
  %54 = load i64, ptr %11, align 8
  store i64 %54, ptr %7, align 8
  br label %55

55:                                               ; preds = %20, %processFlags.exit, %12
  %.0 = phi i32 [ -1, %12 ], [ -1, %20 ], [ %53, %processFlags.exit ]
  ret i32 %.0
}